; ModuleID = '58/1176.c'
source_filename = "58/1176.c"
target datalayout = "e-m:e-p270:32:32-p271:32:32-p272:64:64-i64:64-f80:128-n8:16:32:64-S128"
target triple = "x86_64-pc-linux-gnu"

@.str = private unnamed_addr constant [3 x i8] c"%d\00", align 1
@.str.1 = private unnamed_addr constant [3 x i8] c"0\0A\00", align 1
@.str.2 = private unnamed_addr constant [3 x i8] c"1\0A\00", align 1

; Function Attrs: noinline nounwind uwtable
define dso_local i32 @main() #0 {
  %1 = alloca i32, align 4
  %2 = alloca [1000 x [1000 x i8]], align 16
  %3 = alloca [1000 x i8*], align 16
  %4 = alloca i8*, align 8
  %5 = alloca i32, align 4
  %6 = alloca i32, align 4
  %7 = alloca i32, align 4
  store i32 0, i32* %1, align 4
  %8 = call i32 (i8*, ...) @__isoc99_scanf(i8* getelementptr inbounds ([3 x i8], [3 x i8]* @.str, i64 0, i64 0), i32* %5)
  store i32 0, i32* %6, align 4
  br label %9

9:                                                ; preds = %26, %0
  %10 = load i32, i32* %6, align 4
  %11 = load i32, i32* %5, align 4
  %12 = icmp sle i32 %10, %11
  br i1 %12, label %13, label %29

13:                                               ; preds = %9
  %14 = load i32, i32* %6, align 4
  %15 = sext i32 %14 to i64
  %16 = getelementptr inbounds [1000 x [1000 x i8]], [1000 x [1000 x i8]]* %2, i64 0, i64 %15
  %17 = getelementptr inbounds [1000 x i8], [1000 x i8]* %16, i64 0, i64 0
  %18 = call i32 (i8*, ...) bitcast (i32 (...)* @gets to i32 (i8*, ...)*)(i8* %17)
  %19 = load i32, i32* %6, align 4
  %20 = sext i32 %19 to i64
  %21 = getelementptr inbounds [1000 x [1000 x i8]], [1000 x [1000 x i8]]* %2, i64 0, i64 %20
  %22 = getelementptr inbounds [1000 x i8], [1000 x i8]* %21, i64 0, i64 0
  %23 = load i32, i32* %6, align 4
  %24 = sext i32 %23 to i64
  %25 = getelementptr inbounds [1000 x i8*], [1000 x i8*]* %3, i64 0, i64 %24
  store i8* %22, i8** %25, align 8
  br label %26

26:                                               ; preds = %13
  %27 = load i32, i32* %6, align 4
  %28 = add nsw i32 %27, 1
  store i32 %28, i32* %6, align 4
  br label %9

29:                                               ; preds = %9
  store i32 1, i32* %6, align 4
  br label %30

30:                                               ; preds = %75, %29
  %31 = load i32, i32* %6, align 4
  %32 = load i32, i32* %5, align 4
  %33 = icmp sle i32 %31, %32
  br i1 %33, label %34, label %78

34:                                               ; preds = %30
  %35 = load i32, i32* %6, align 4
  %36 = sext i32 %35 to i64
  %37 = getelementptr inbounds [1000 x i8*], [1000 x i8*]* %3, i64 0, i64 %36
  %38 = load i8*, i8** %37, align 8
  store i8* %38, i8** %4, align 8
  %39 = load i8*, i8** %4, align 8
  %40 = load i8, i8* %39, align 1
  %41 = sext i8 %40 to i32
  %42 = icmp slt i32 %41, 65
  br i1 %42, label %63, label %43

43:                                               ; preds = %34
  %44 = load i8*, i8** %4, align 8
  %45 = load i8, i8* %44, align 1
  %46 = sext i8 %45 to i32
  %47 = icmp sgt i32 %46, 122
  br i1 %47, label %63, label %48

48:                                               ; preds = %43
  %49 = load i8*, i8** %4, align 8
  %50 = load i8, i8* %49, align 1
  %51 = sext i8 %50 to i32
  %52 = icmp sgt i32 %51, 90
  br i1 %52, label %53, label %65

53:                                               ; preds = %48
  %54 = load i8*, i8** %4, align 8
  %55 = load i8, i8* %54, align 1
  %56 = sext i8 %55 to i32
  %57 = icmp slt i32 %56, 97
  br i1 %57, label %58, label %65

58:                                               ; preds = %53
  %59 = load i8*, i8** %4, align 8
  %60 = load i8, i8* %59, align 1
  %61 = sext i8 %60 to i32
  %62 = icmp ne i32 %61, 95
  br i1 %62, label %63, label %65

63:                                               ; preds = %58, %43, %34
  %64 = call i32 (i8*, ...) @printf(i8* getelementptr inbounds ([3 x i8], [3 x i8]* @.str.1, i64 0, i64 0))
  br label %75

65:                                               ; preds = %58, %53, %48
  %66 = load i8*, i8** %4, align 8
  %67 = call i32 @stri(i8* %66)
  %68 = icmp eq i32 %67, 1
  br i1 %68, label %69, label %71

69:                                               ; preds = %65
  %70 = call i32 (i8*, ...) @printf(i8* getelementptr inbounds ([3 x i8], [3 x i8]* @.str.2, i64 0, i64 0))
  br label %73

71:                                               ; preds = %65
  %72 = call i32 (i8*, ...) @printf(i8* getelementptr inbounds ([3 x i8], [3 x i8]* @.str.1, i64 0, i64 0))
  br label %73

73:                                               ; preds = %71, %69
  br label %74

74:                                               ; preds = %73
  br label %75

75:                                               ; preds = %74, %63
  %76 = load i32, i32* %6, align 4
  %77 = add nsw i32 %76, 1
  store i32 %77, i32* %6, align 4
  br label %30

78:                                               ; preds = %30
  %79 = load i32, i32* %1, align 4
  ret i32 %79
}

declare dso_local i32 @__isoc99_scanf(i8*, ...) #1

declare dso_local i32 @gets(...) #1

declare dso_local i32 @printf(i8*, ...) #1

; Function Attrs: noinline nounwind uwtable
define dso_local i32 @stri(i8* %0) #0 {
  %2 = alloca i32, align 4
  %3 = alloca i8*, align 8
  %4 = alloca i8*, align 8
  store i8* %0, i8** %3, align 8
  %5 = load i8*, i8** %3, align 8
  store i8* %5, i8** %4, align 8
  br label %6

6:                                                ; preds = %48, %1
  %7 = load i8*, i8** %4, align 8
  %8 = load i8, i8* %7, align 1
  %9 = sext i8 %8 to i32
  %10 = icmp ne i32 %9, 0
  br i1 %10, label %11, label %51

11:                                               ; preds = %6
  %12 = load i8*, i8** %4, align 8
  %13 = load i8, i8* %12, align 1
  %14 = sext i8 %13 to i32
  %15 = icmp slt i32 %14, 48
  br i1 %15, label %46, label %16

16:                                               ; preds = %11
  %17 = load i8*, i8** %4, align 8
  %18 = load i8, i8* %17, align 1
  %19 = sext i8 %18 to i32
  %20 = icmp sgt i32 %19, 122
  br i1 %20, label %46, label %21

21:                                               ; preds = %16
  %22 = load i8*, i8** %4, align 8
  %23 = load i8, i8* %22, align 1
  %24 = sext i8 %23 to i32
  %25 = icmp slt i32 57, %24
  br i1 %25, label %26, label %31

26:                                               ; preds = %21
  %27 = load i8*, i8** %4, align 8
  %28 = load i8, i8* %27, align 1
  %29 = sext i8 %28 to i32
  %30 = icmp slt i32 %29, 65
  br i1 %30, label %46, label %31

31:                                               ; preds = %26, %21
  %32 = load i8*, i8** %4, align 8
  %33 = load i8, i8* %32, align 1
  %34 = sext i8 %33 to i32
  %35 = icmp sgt i32 %34, 90
  br i1 %35, label %36, label %47

36:                                               ; preds = %31
  %37 = load i8*, i8** %4, align 8
  %38 = load i8, i8* %37, align 1
  %39 = sext i8 %38 to i32
  %40 = icmp slt i32 %39, 97
  br i1 %40, label %41, label %47

41:                                               ; preds = %36
  %42 = load i8*, i8** %4, align 8
  %43 = load i8, i8* %42, align 1
  %44 = sext i8 %43 to i32
  %45 = icmp ne i32 %44, 95
  br i1 %45, label %46, label %47

46:                                               ; preds = %41, %26, %16, %11
  store i32 0, i32* %2, align 4
  br label %57

47:                                               ; preds = %41, %36, %31
  br label %48

48:                                               ; preds = %47
  %49 = load i8*, i8** %4, align 8
  %50 = getelementptr inbounds i8, i8* %49, i32 1
  store i8* %50, i8** %4, align 8
  br label %6

51:                                               ; preds = %6
  %52 = load i8*, i8** %4, align 8
  %53 = load i8, i8* %52, align 1
  %54 = sext i8 %53 to i32
  %55 = icmp eq i32 %54, 0
  br i1 %55, label %56, label %57

56:                                               ; preds = %51
  store i32 1, i32* %2, align 4
  br label %57

57:                                               ; preds = %46, %56, %51
  %58 = load i32, i32* %2, align 4
  ret i32 %58
}


!llvm.module.flags = !{!0}
!llvm.ident = !{!1}

!0 = !{i32 1, !"wchar_size", i32 4}
!1 = !{!"clang version 10.0.0-4ubuntu1 "}
